; Function Attrs: mustprogress nounwind uwtable
define hidden void @_ZN19OpenColorIO_v2_5dev17GradingToneOpData8setStyleENS_12GradingStyleE(ptr noundef nonnull align 8 captures(none) dereferenceable(196) %0, i32 noundef %1) local_unnamed_addr #5 align 2 personality ptr @__gxx_personality_v0 {
  %3 = getelementptr inbounds nuw i8, ptr %0, i64 168
  %4 = load i32, ptr %3, align 8, !tbaa !6
  %.not = icmp eq i32 %4, %1
  br i1 %.not, label %8, label %5

5:                                                ; preds = %2
  store i32 %1, ptr %3, align 8, !tbaa !6
  %6 = getelementptr inbounds nuw i8, ptr %0, i64 176
  %7 = load ptr, ptr %6, align 8, !tbaa !49
  invoke void @_ZN19OpenColorIO_v2_5dev30DynamicPropertyGradingToneImpl8setStyleENS_12GradingStyleE(ptr noundef nonnull align 8 dereferenceable(1208) %7, i32 noundef %1)
          to label %8 unwind label %9

8:                                                ; preds = %5, %2
  ret void

9:                                                ; preds = %5
  %10 = landingpad { ptr, i32 }
          catch ptr null
  %11 = extractvalue { ptr, i32 } %10, 0
  tail call void @__clang_call_terminate(ptr %11) #25
  unreachable
}